(dp0
I0
(lp1
F40.5683282534
aI0
asI1
(lp2
F40.57098283208393
aI84
asI2
(lp3
F40.57363741076786
aI168
asI3
(lp4
F40.57629198945179
aI252
asI4
(lp5
F40.57894656813572
aI336
asI5
(lp6
F40.58160114681965
aI420
asI6
(lp7
F40.58425572550358
aI504
asI7
(lp8
F40.58691030418751
aI588
asI8
(lp9
F40.58956488287144
aI672
asI9
(lp10
F40.59221946155537
aI756
asI10
(lp11
F40.594874040239304
aI840
asI11
(lp12
F40.597528618923235
aI924
asI12
(lp13
F40.600183197607166
aI1008
asI13
(lp14
F40.602837776291096
aI1092
asI14
(lp15
F40.60549235497503
aI1176
asI15
(lp16
F40.60814693365896
aI1260
asI16
(lp17
F40.61080151234289
aI1344
asI17
(lp18
F40.61345609102682
aI1428
asI18
(lp19
F40.61611066971075
aI1512
asI19
(lp20
F40.61876524839468
aI1596
asI20
(lp21
F40.62141982707861
aI1680
asI21
(lp22
F40.62407440576254
aI1764
asI22
(lp23
F40.62672898444647
aI1848
asI23
(lp24
F40.6293835631304
aI1932
asI24
(lp25
F40.632038141814334
aI2016
asI25
(lp26
F40.634692720498265
aI2100
asI26
(lp27
F40.637347299182196
aI2184
asI27
(lp28
F40.640001877866126
aI2268
asI28
(lp29
F40.64265645655006
aI2352
asI29
(lp30
F40.64531103523399
aI2436
asI30
(lp31
F40.64796561391792
aI2520
asI31
(lp32
F40.65062019260185
aI2604
asI32
(lp33
F40.65327477128578
aI2688
asI33
(lp34
F40.65592934996971
aI2772
asI34
(lp35
F40.65858392865364
aI2856
asI35
(lp36
F40.66123850733757
aI2940
asI36
(lp37
F40.6638930860215
aI3024
asI37
(lp38
F40.66654766470543
aI3108
asI38
(lp39
F40.669202243389364
aI3192
asI39
(lp40
F40.671856822073295
aI3276
asI40
(lp41
F40.674511400757225
aI3360
asI41
(lp42
F40.677165979441156
aI3444
asI42
(lp43
F40.67982055812509
aI3528
asI43
(lp44
F40.68247513680902
aI3612
asI44
(lp45
F40.68512971549295
aI3696
asI45
(lp46
F40.68778429417688
aI3780
asI46
(lp47
F40.69043887286081
aI3864
asI47
(lp48
F40.69309345154474
aI3948
asI48
(lp49
F40.69574803022867
aI4032
asI49
(lp50
F40.6984026089126
aI4116
asI50
(lp51
F40.70105718759653
aI4200
asI51
(lp52
F40.70371176628046
aI4284
asI52
(lp53
F40.706366344964394
aI4368
asI53
(lp54
F40.709020923648325
aI4452
asI54
(lp55
F40.711675502332255
aI4536
asI55
(lp56
F40.714330081016186
aI4620
asI56
(lp57
F40.71698465970012
aI4704
asI57
(lp58
F40.71963923838405
aI4788
asI58
(lp59
F40.72229381706798
aI4872
asI59
(lp60
F40.72494839575191
aI4956
asI60
(lp61
F40.72760297443584
aI5040
asI61
(lp62
F40.73025755311977
aI5124
asI62
(lp63
F40.7329121318037
aI5208
asI63
(lp64
F40.73556671048763
aI5292
asI64
(lp65
F40.73822128917156
aI5376
asI65
(lp66
F40.74087586785549
aI5460
asI66
(lp67
F40.743530446539424
aI5544
asI67
(lp68
F40.746185025223355
aI5628
asI68
(lp69
F40.748839603907285
aI5712
asI69
(lp70
F40.751494182591216
aI5796
asI70
(lp71
F40.75414876127515
aI5880
asI71
(lp72
F40.75680333995908
aI5964
asI72
(lp73
F40.75945791864301
aI6048
asI73
(lp74
F40.76211249732694
aI6132
asI74
(lp75
F40.76476707601087
aI6216
asI75
(lp76
F40.7674216546948
aI6300
asI76
(lp77
F40.77007623337873
aI6384
asI77
(lp78
F40.77273081206266
aI6468
asI78
(lp79
F40.77538539074659
aI6552
asI79
(lp80
F40.77803996943052
aI6636
asI80
(lp81
F40.780694548114454
aI6720
asI81
(lp82
F40.783349126798385
aI6804
asI82
(lp83
F40.786003705482315
aI6888
asI83
(lp84
F40.788658284166246
aI6972
asI84
(lp85
F40.79131286285018
aI7056
asI85
(lp86
F40.79396744153411
aI7140
asI86
(lp87
F40.79662202021804
aI7224
asI87
(lp88
F40.79927659890197
aI7308
asI88
(lp89
F40.8019311775859
aI7392
asI89
(lp90
F40.80458575626983
aI7476
asI90
(lp91
F40.80724033495376
aI7560
asI91
(lp92
F40.80989491363769
aI7644
asI92
(lp93
F40.81254949232162
aI7728
asI93
(lp94
F40.81520407100555
aI7812
asI94
(lp95
F40.817858649689484
aI7896
asI95
(lp96
F40.820513228373414
aI7980
asI96
(lp97
F40.823167807057345
aI8064
asI97
(lp98
F40.825822385741276
aI8148
asI98
(lp99
F40.82847696442521
aI8232
asI99
(lp100
F40.83113154310914
aI8316
asI100
(lp101
F40.83378612179307
aI8400
asI101
(lp102
F40.836440700477
aI8484
asI102
(lp103
F40.83909527916093
aI8568
asI103
(lp104
F40.84174985784486
aI8652
asI104
(lp105
F40.84440443652879
aI8736
asI105
(lp106
F40.84705901521272
aI8820
asI106
(lp107
F40.84971359389665
aI8904
asI107
(lp108
F40.85236817258058
aI8988
asI108
(lp109
F40.855022751264514
aI9072
asI109
(lp110
F40.857677329948444
aI9156
asI110
(lp111
F40.860331908632375
aI9240
asI111
(lp112
F40.862986487316306
aI9324
asI112
(lp113
F40.86564106600024
aI9408
as.